target datalayout = "e-m:e-p270:32:32-p271:32:32-p272:64:64-i64:64-i128:128-f80:128-n8:16:32:64-S128"
target triple = "x86_64-pc-linux-gnu"

%"class.icu_77::UnicodeString" = type { %"class.icu_77::Replaceable", %"union.icu_77::UnicodeString::StackBufferOrFields" }
%"class.icu_77::Replaceable" = type { %"class.icu_77::UObject" }
%"class.icu_77::UObject" = type { ptr }
%"union.icu_77::UnicodeString::StackBufferOrFields" = type { %struct.anon.0, [32 x i8] }
%struct.anon.0 = type { i16, i32, i32, ptr }
%"class.icu_77::VTimeZone" = type { %"class.icu_77::BasicTimeZone", ptr, ptr, %"class.icu_77::UnicodeString", double, %"class.icu_77::UnicodeString", %"class.icu_77::UnicodeString" }
%"class.icu_77::BasicTimeZone" = type { %"class.icu_77::TimeZone" }
%"class.icu_77::TimeZone" = type { %"class.icu_77::UObject", %"class.icu_77::UnicodeString" }

; Function Attrs: mustprogress uwtable
define noundef i32 @_ZNK6icu_779VTimeZone12getRawOffsetEv(ptr noundef nonnull align 8 dereferenceable(288) %0) unnamed_addr #1 align 2 {
  %2 = alloca ptr, align 8
  store ptr %0, ptr %2, align 8, !tbaa !29
  %3 = load ptr, ptr %2, align 8
  %4 = getelementptr inbounds nuw %"class.icu_77::VTimeZone", ptr %3, i32 0, i32 1
  %5 = load ptr, ptr %4, align 8, !tbaa !33
  %6 = load ptr, ptr %5, align 8, !tbaa !31
  %7 = getelementptr inbounds ptr, ptr %6, i64 8
  %8 = load ptr, ptr %7, align 8
  %9 = call noundef i32 %8(ptr noundef nonnull align 8 dereferenceable(72) %5)
  ret i32 %9
}