; Function Attrs: mustprogress uwtable
define noundef i32 @_ZNK6icu_779VTimeZone12getRawOffsetEv(ptr noundef nonnull readonly align 8 captures(none) dereferenceable(288) %0) unnamed_addr #2 align 2 {
  %2 = getelementptr inbounds nuw i8, ptr %0, i64 72
  %3 = load ptr, ptr %2, align 8, !tbaa !29
  %4 = load ptr, ptr %3, align 8, !tbaa !17
  %5 = getelementptr inbounds nuw i8, ptr %4, i64 64
  %6 = load ptr, ptr %5, align 8
  %7 = tail call noundef i32 %6(ptr noundef nonnull align 8 dereferenceable(72) %3)
  ret i32 %7
}